; Function Attrs: nounwind uwtable
define noalias nonnull ptr @l_Std_Sat_AIG_mkConstCached___rarg(ptr noundef readnone captures(none) %0, ptr noundef readnone captures(none) %1, ptr noundef %2, i8 noundef zeroext %3) local_unnamed_addr #1 {
  tail call void @lean_inc_heartbeat() #4
  %5 = tail call noalias ptr @mi_malloc_small(i64 noundef 24) #4
  %6 = icmp eq ptr %5, null
  br i1 %6, label %7, label %lean_alloc_ctor.exit

7:                                                ; preds = %4
  tail call void @lean_internal_panic_out_of_memory() #5
  unreachable

lean_alloc_ctor.exit:                             ; preds = %4
  %8 = getelementptr inbounds nuw i8, ptr %5, i64 4
  %9 = getelementptr inbounds nuw i8, ptr %5, i64 16
  store i64 0, ptr %9, align 8, !tbaa !12
  store i32 1, ptr %5, align 4, !tbaa !4
  store i32 65560, ptr %8, align 4
  %10 = getelementptr inbounds nuw i8, ptr %5, i64 8
  store ptr inttoptr (i64 1 to ptr), ptr %10, align 8, !tbaa !9
  store i8 %3, ptr %9, align 1, !tbaa !18
  tail call void @lean_inc_heartbeat() #4
  %11 = tail call noalias ptr @mi_malloc_small(i64 noundef 24) #4
  %12 = icmp eq ptr %11, null
  br i1 %12, label %13, label %lean_alloc_ctor.exit8

13:                                               ; preds = %lean_alloc_ctor.exit
  tail call void @lean_internal_panic_out_of_memory() #5
  unreachable

lean_alloc_ctor.exit8:                            ; preds = %lean_alloc_ctor.exit
  %14 = getelementptr inbounds nuw i8, ptr %11, i64 4
  store i32 1, ptr %11, align 4, !tbaa !4
  store i32 131096, ptr %14, align 4
  %15 = getelementptr inbounds nuw i8, ptr %11, i64 8
  store ptr %2, ptr %15, align 8, !tbaa !9
  %16 = getelementptr inbounds nuw i8, ptr %11, i64 16
  store ptr %5, ptr %16, align 8, !tbaa !9
  ret ptr %11
}